target datalayout = "e-m:e-p270:32:32-p271:32:32-p272:64:64-i64:64-i128:128-f80:128-n8:16:32:64-S128"
target triple = "x86_64-pc-linux-gnu"

%struct.Abc_Obj_t_ = type { ptr, ptr, i32, i32, %struct.Vec_Int_t_, %struct.Vec_Int_t_, %union.anon, %union.anon.0 }
%struct.Vec_Int_t_ = type { i32, i32, ptr }
%union.anon = type { ptr }
%union.anon.0 = type { ptr }
%struct.Vec_Ptr_t_ = type { i32, i32, ptr }
%struct.Abc_Ntk_t_ = type { i32, i32, ptr, ptr, ptr, ptr, ptr, ptr, ptr, ptr, ptr, ptr, ptr, [11 x i32], i32, i32, i32, i32, ptr, i32, ptr, ptr, i32, i32, i32, double, i32, %struct.Vec_Int_t_, ptr, ptr, ptr, ptr, ptr, float, i32, ptr, ptr, ptr, ptr, ptr, ptr, ptr, ptr, ptr, ptr, ptr, ptr, ptr, ptr, ptr, ptr, ptr, ptr, ptr, ptr, ptr }

@.str.11 = private unnamed_addr constant [4 x i8] c"out\00", align 1
@stdout = external global ptr, align 8
@.str.12 = private unnamed_addr constant [56 x i8] c"Abc_NtkCreateFromCharFunc(): Network check has failed.\0A\00", align 1

; Function Attrs: nounwind uwtable
define internal ptr @Vec_PtrEntry(ptr noundef %0, i32 noundef %1) #0 {
  %3 = alloca ptr, align 8
  %4 = alloca i32, align 4
  store ptr %0, ptr %3, align 8
  store i32 %1, ptr %4, align 4
  %5 = load ptr, ptr %3, align 8
  %6 = getelementptr inbounds %struct.Vec_Ptr_t_, ptr %5, i32 0, i32 2
  %7 = load ptr, ptr %6, align 8
  %8 = load i32, ptr %4, align 4
  %9 = sext i32 %8 to i64
  %10 = getelementptr inbounds ptr, ptr %7, i64 %9
  %11 = load ptr, ptr %10, align 8
  ret ptr %11
}

; Function Attrs: nounwind uwtable
define internal i32 @Vec_PtrSize(ptr noundef %0) #0 {
  %2 = alloca ptr, align 8
  store ptr %0, ptr %2, align 8
  %3 = load ptr, ptr %2, align 8
  %4 = getelementptr inbounds %struct.Vec_Ptr_t_, ptr %3, i32 0, i32 1
  %5 = load i32, ptr %4, align 4
  ret i32 %5
}

; Function Attrs: nounwind uwtable
define internal ptr @Abc_NtkCreatePo(ptr noundef %0) #0 {
  %2 = alloca ptr, align 8
  store ptr %0, ptr %2, align 8
  %3 = load ptr, ptr %2, align 8
  %4 = call ptr @Abc_NtkCreateObj(ptr noundef %3, i32 noundef 3)
  ret ptr %4
}

; Function Attrs: nounwind uwtable
define internal ptr @Abc_NtkCo(ptr noundef %0, i32 noundef %1) #0 {
  %3 = alloca ptr, align 8
  %4 = alloca i32, align 4
  store ptr %0, ptr %3, align 8
  store i32 %1, ptr %4, align 4
  %5 = load ptr, ptr %3, align 8
  %6 = getelementptr inbounds %struct.Abc_Ntk_t_, ptr %5, i32 0, i32 9
  %7 = load ptr, ptr %6, align 8
  %8 = load i32, ptr %4, align 4
  %9 = call ptr @Vec_PtrEntry(ptr noundef %7, i32 noundef %8)
  ret ptr %9
}

; Function Attrs: nounwind uwtable
define internal i32 @Abc_NtkCoNum(ptr noundef %0) #0 {
  %2 = alloca ptr, align 8
  store ptr %0, ptr %2, align 8
  %3 = load ptr, ptr %2, align 8
  %4 = getelementptr inbounds %struct.Abc_Ntk_t_, ptr %3, i32 0, i32 9
  %5 = load ptr, ptr %4, align 8
  %6 = call i32 @Vec_PtrSize(ptr noundef %5)
  ret i32 %6
}

; Function Attrs: nounwind uwtable
define internal ptr @Abc_NtkCreatePi(ptr noundef %0) #0 {
  %2 = alloca ptr, align 8
  store ptr %0, ptr %2, align 8
  %3 = load ptr, ptr %2, align 8
  %4 = call ptr @Abc_NtkCreateObj(ptr noundef %3, i32 noundef 2)
  ret ptr %4
}

; Function Attrs: nounwind uwtable
define internal ptr @Abc_NtkCi(ptr noundef %0, i32 noundef %1) #0 {
  %3 = alloca ptr, align 8
  %4 = alloca i32, align 4
  store ptr %0, ptr %3, align 8
  store i32 %1, ptr %4, align 4
  %5 = load ptr, ptr %3, align 8
  %6 = getelementptr inbounds %struct.Abc_Ntk_t_, ptr %5, i32 0, i32 8
  %7 = load ptr, ptr %6, align 8
  %8 = load i32, ptr %4, align 4
  %9 = call ptr @Vec_PtrEntry(ptr noundef %7, i32 noundef %8)
  ret ptr %9
}

; Function Attrs: nounwind uwtable
define internal i32 @Abc_NtkCiNum(ptr noundef %0) #0 {
  %2 = alloca ptr, align 8
  store ptr %0, ptr %2, align 8
  %3 = load ptr, ptr %2, align 8
  %4 = getelementptr inbounds %struct.Abc_Ntk_t_, ptr %3, i32 0, i32 8
  %5 = load ptr, ptr %4, align 8
  %6 = call i32 @Vec_PtrSize(ptr noundef %5)
  ret i32 %6
}

; Function Attrs: nounwind uwtable
define internal ptr @Abc_NtkCreateNode(ptr noundef %0) #0 {
  %2 = alloca ptr, align 8
  store ptr %0, ptr %2, align 8
  %3 = load ptr, ptr %2, align 8
  %4 = call ptr @Abc_NtkCreateObj(ptr noundef %3, i32 noundef 7)
  ret ptr %4
}

; Function Attrs: nounwind uwtable
define ptr @Abc_NtkCreateFromCharFunc(ptr noundef %0, ptr noundef %1, ptr noundef %2) #0 {
  %4 = alloca ptr, align 8
  %5 = alloca ptr, align 8
  %6 = alloca ptr, align 8
  %7 = alloca ptr, align 8
  %8 = alloca ptr, align 8
  %9 = alloca ptr, align 8
  %10 = alloca ptr, align 8
  %11 = alloca i32, align 4
  store ptr %0, ptr %4, align 8
  store ptr %1, ptr %5, align 8
  store ptr %2, ptr %6, align 8
  %12 = call ptr @Abc_NtkAlloc(i32 noundef 2, i32 noundef 2, i32 noundef 1)
  store ptr %12, ptr %7, align 8
  %13 = load ptr, ptr %4, align 8
  %14 = getelementptr inbounds %struct.Abc_Ntk_t_, ptr %13, i32 0, i32 2
  %15 = load ptr, ptr %14, align 8
  %16 = call ptr @Extra_UtilStrsav(ptr noundef %15)
  %17 = load ptr, ptr %7, align 8
  %18 = getelementptr inbounds %struct.Abc_Ntk_t_, ptr %17, i32 0, i32 2
  store ptr %16, ptr %18, align 8
  %19 = load ptr, ptr %7, align 8
  %20 = call ptr @Abc_NtkCreateNode(ptr noundef %19)
  store ptr %20, ptr %9, align 8
  store i32 0, ptr %11, align 4
  br label %21

21:                                               ; preds = %47, %3
  %22 = load i32, ptr %11, align 4
  %23 = load ptr, ptr %4, align 8
  %24 = call i32 @Abc_NtkCiNum(ptr noundef %23)
  %25 = icmp slt i32 %22, %24
  br i1 %25, label %26, label %30

26:                                               ; preds = %21
  %27 = load ptr, ptr %4, align 8
  %28 = load i32, ptr %11, align 4
  %29 = call ptr @Abc_NtkCi(ptr noundef %27, i32 noundef %28)
  store ptr %29, ptr %8, align 8
  br label %30

30:                                               ; preds = %26, %21
  %31 = phi i1 [ false, %21 ], [ true, %26 ]
  br i1 %31, label %32, label %50

32:                                               ; preds = %30
  %33 = load ptr, ptr %7, align 8
  %34 = call ptr @Abc_NtkCreatePi(ptr noundef %33)
  %35 = load ptr, ptr %8, align 8
  %36 = getelementptr inbounds %struct.Abc_Obj_t_, ptr %35, i32 0, i32 7
  store ptr %34, ptr %36, align 8
  %37 = load ptr, ptr %9, align 8
  %38 = load ptr, ptr %8, align 8
  %39 = getelementptr inbounds %struct.Abc_Obj_t_, ptr %38, i32 0, i32 7
  %40 = load ptr, ptr %39, align 8
  call void @Abc_ObjAddFanin(ptr noundef %37, ptr noundef %40)
  %41 = load ptr, ptr %8, align 8
  %42 = getelementptr inbounds %struct.Abc_Obj_t_, ptr %41, i32 0, i32 7
  %43 = load ptr, ptr %42, align 8
  %44 = load ptr, ptr %8, align 8
  %45 = call ptr @Abc_ObjName(ptr noundef %44)
  %46 = call ptr @Abc_ObjAssignName(ptr noundef %43, ptr noundef %45, ptr noundef null)
  br label %47

47:                                               ; preds = %32
  %48 = load i32, ptr %11, align 4
  %49 = add nsw i32 %48, 1
  store i32 %49, ptr %11, align 4
  br label %21, !llvm.loop !51

50:                                               ; preds = %30
  store i32 0, ptr %11, align 4
  br label %51

51:                                               ; preds = %77, %50
  %52 = load i32, ptr %11, align 4
  %53 = load ptr, ptr %4, align 8
  %54 = call i32 @Abc_NtkCoNum(ptr noundef %53)
  %55 = icmp slt i32 %52, %54
  br i1 %55, label %56, label %60

56:                                               ; preds = %51
  %57 = load ptr, ptr %4, align 8
  %58 = load i32, ptr %11, align 4
  %59 = call ptr @Abc_NtkCo(ptr noundef %57, i32 noundef %58)
  store ptr %59, ptr %8, align 8
  br label %60

60:                                               ; preds = %56, %51
  %61 = phi i1 [ false, %51 ], [ true, %56 ]
  br i1 %61, label %62, label %80

62:                                               ; preds = %60
  %63 = load ptr, ptr %7, align 8
  %64 = call ptr @Abc_NtkCreatePi(ptr noundef %63)
  %65 = load ptr, ptr %8, align 8
  %66 = getelementptr inbounds %struct.Abc_Obj_t_, ptr %65, i32 0, i32 7
  store ptr %64, ptr %66, align 8
  %67 = load ptr, ptr %9, align 8
  %68 = load ptr, ptr %8, align 8
  %69 = getelementptr inbounds %struct.Abc_Obj_t_, ptr %68, i32 0, i32 7
  %70 = load ptr, ptr %69, align 8
  call void @Abc_ObjAddFanin(ptr noundef %67, ptr noundef %70)
  %71 = load ptr, ptr %8, align 8
  %72 = getelementptr inbounds %struct.Abc_Obj_t_, ptr %71, i32 0, i32 7
  %73 = load ptr, ptr %72, align 8
  %74 = load ptr, ptr %8, align 8
  %75 = call ptr @Abc_ObjName(ptr noundef %74)
  %76 = call ptr @Abc_ObjAssignName(ptr noundef %73, ptr noundef %75, ptr noundef null)
  br label %77

77:                                               ; preds = %62
  %78 = load i32, ptr %11, align 4
  %79 = add nsw i32 %78, 1
  store i32 %79, ptr %11, align 4
  br label %51, !llvm.loop !52

80:                                               ; preds = %60
  %81 = load ptr, ptr %5, align 8
  %82 = load ptr, ptr %7, align 8
  %83 = getelementptr inbounds %struct.Abc_Ntk_t_, ptr %82, i32 0, i32 30
  %84 = load ptr, ptr %83, align 8
  %85 = load ptr, ptr %6, align 8
  %86 = call ptr @Extra_TransferLevelByLevel(ptr noundef %81, ptr noundef %84, ptr noundef %85)
  %87 = load ptr, ptr %9, align 8
  %88 = getelementptr inbounds %struct.Abc_Obj_t_, ptr %87, i32 0, i32 6
  store ptr %86, ptr %88, align 8
  %89 = load ptr, ptr %9, align 8
  %90 = getelementptr inbounds %struct.Abc_Obj_t_, ptr %89, i32 0, i32 6
  %91 = load ptr, ptr %90, align 8
  call void @Cudd_Ref(ptr noundef %91)
  %92 = load ptr, ptr %7, align 8
  %93 = call ptr @Abc_NtkCreatePo(ptr noundef %92)
  store ptr %93, ptr %10, align 8
  %94 = load ptr, ptr %10, align 8
  %95 = load ptr, ptr %9, align 8
  call void @Abc_ObjAddFanin(ptr noundef %94, ptr noundef %95)
  %96 = load ptr, ptr %10, align 8
  %97 = call ptr @Abc_ObjAssignName(ptr noundef %96, ptr noundef @.str.11, ptr noundef null)
  %98 = load ptr, ptr %7, align 8
  %99 = call i32 @Abc_NtkCheck(ptr noundef %98)
  %100 = icmp ne i32 %99, 0
  br i1 %100, label %104, label %101

101:                                              ; preds = %80
  %102 = load ptr, ptr @stdout, align 8
  %103 = call i32 (ptr, ptr, ...) @fprintf(ptr noundef %102, ptr noundef @.str.12) #9
  br label %104

104:                                              ; preds = %101, %80
  %105 = load ptr, ptr %7, align 8
  ret ptr %105
}