; Function Attrs: nounwind uwtable
define ptr @Abc_NtkCreateFromCharFunc(ptr noundef readonly captures(none) %0, ptr noundef %1, ptr noundef %2) local_unnamed_addr #0 {
  %4 = tail call ptr @Abc_NtkAlloc(i32 noundef 2, i32 noundef 2, i32 noundef 1) #18
  %5 = getelementptr inbounds nuw i8, ptr %0, i64 8
  %6 = load ptr, ptr %5, align 8
  %7 = tail call ptr @Extra_UtilStrsav(ptr noundef %6) #18
  %8 = getelementptr inbounds nuw i8, ptr %4, i64 8
  store ptr %7, ptr %8, align 8
  %9 = tail call ptr @Abc_NtkCreateObj(ptr noundef %4, i32 noundef 7) #18
  %10 = getelementptr i8, ptr %0, i64 56
  %.val40 = load ptr, ptr %10, align 8
  %11 = getelementptr i8, ptr %.val40, i64 4
  %.val.val41 = load i32, ptr %11, align 4
  %12 = icmp sgt i32 %.val.val41, 0
  br i1 %12, label %.lr.ph, label %.critedge.preheader

.critedge.preheader:                              ; preds = %.lr.ph, %3
  %13 = getelementptr i8, ptr %0, i64 64
  %.val3844 = load ptr, ptr %13, align 8
  %14 = getelementptr i8, ptr %.val3844, i64 4
  %.val38.val45 = load i32, ptr %14, align 4
  %15 = icmp sgt i32 %.val38.val45, 0
  br i1 %15, label %.critedge, label %.critedge2

.lr.ph:                                           ; preds = %3, %.lr.ph
  %indvars.iv = phi i64 [ %indvars.iv.next, %.lr.ph ], [ 0, %3 ]
  %.val43 = phi ptr [ %.val, %.lr.ph ], [ %.val40, %3 ]
  %16 = getelementptr i8, ptr %.val43, i64 8
  %.val37.val = load ptr, ptr %16, align 8
  %17 = getelementptr inbounds nuw ptr, ptr %.val37.val, i64 %indvars.iv
  %18 = load ptr, ptr %17, align 8
  %19 = tail call ptr @Abc_NtkCreateObj(ptr noundef %4, i32 noundef 2) #18
  %20 = getelementptr inbounds nuw i8, ptr %18, i64 64
  store ptr %19, ptr %20, align 8
  tail call void @Abc_ObjAddFanin(ptr noundef %9, ptr noundef %19) #18
  %21 = load ptr, ptr %20, align 8
  %22 = tail call ptr @Abc_ObjName(ptr noundef %18) #18
  %23 = tail call ptr @Abc_ObjAssignName(ptr noundef %21, ptr noundef %22, ptr noundef null) #18
  %indvars.iv.next = add nuw nsw i64 %indvars.iv, 1
  %.val = load ptr, ptr %10, align 8
  %24 = getelementptr i8, ptr %.val, i64 4
  %.val.val = load i32, ptr %24, align 4
  %25 = sext i32 %.val.val to i64
  %26 = icmp slt i64 %indvars.iv.next, %25
  br i1 %26, label %.lr.ph, label %.critedge.preheader, !llvm.loop !47

.critedge:                                        ; preds = %.critedge.preheader, %.critedge
  %indvars.iv51 = phi i64 [ %indvars.iv.next52, %.critedge ], [ 0, %.critedge.preheader ]
  %.val3847 = phi ptr [ %.val38, %.critedge ], [ %.val3844, %.critedge.preheader ]
  %27 = getelementptr i8, ptr %.val3847, i64 8
  %.val39.val = load ptr, ptr %27, align 8
  %28 = getelementptr inbounds nuw ptr, ptr %.val39.val, i64 %indvars.iv51
  %29 = load ptr, ptr %28, align 8
  %30 = tail call ptr @Abc_NtkCreateObj(ptr noundef %4, i32 noundef 2) #18
  %31 = getelementptr inbounds nuw i8, ptr %29, i64 64
  store ptr %30, ptr %31, align 8
  tail call void @Abc_ObjAddFanin(ptr noundef %9, ptr noundef %30) #18
  %32 = load ptr, ptr %31, align 8
  %33 = tail call ptr @Abc_ObjName(ptr noundef %29) #18
  %34 = tail call ptr @Abc_ObjAssignName(ptr noundef %32, ptr noundef %33, ptr noundef null) #18
  %indvars.iv.next52 = add nuw nsw i64 %indvars.iv51, 1
  %.val38 = load ptr, ptr %13, align 8
  %35 = getelementptr i8, ptr %.val38, i64 4
  %.val38.val = load i32, ptr %35, align 4
  %36 = sext i32 %.val38.val to i64
  %37 = icmp slt i64 %indvars.iv.next52, %36
  br i1 %37, label %.critedge, label %.critedge2, !llvm.loop !48

.critedge2:                                       ; preds = %.critedge, %.critedge.preheader
  %38 = getelementptr inbounds nuw i8, ptr %4, i64 256
  %39 = load ptr, ptr %38, align 8
  %40 = tail call ptr @Extra_TransferLevelByLevel(ptr noundef %1, ptr noundef %39, ptr noundef %2) #18
  %41 = getelementptr inbounds nuw i8, ptr %9, i64 56
  store ptr %40, ptr %41, align 8
  tail call void @Cudd_Ref(ptr noundef %40) #18
  %42 = tail call ptr @Abc_NtkCreateObj(ptr noundef %4, i32 noundef 3) #18
  tail call void @Abc_ObjAddFanin(ptr noundef %42, ptr noundef %9) #18
  %43 = tail call ptr @Abc_ObjAssignName(ptr noundef %42, ptr noundef nonnull @.str.11, ptr noundef null) #18
  %44 = tail call i32 @Abc_NtkCheck(ptr noundef %4) #18
  %.not = icmp eq i32 %44, 0
  br i1 %.not, label %45, label %48

45:                                               ; preds = %.critedge2
  %46 = load ptr, ptr @stdout, align 8
  %47 = tail call i64 @fwrite(ptr nonnull @.str.12, i64 55, i64 1, ptr %46)
  br label %48

48:                                               ; preds = %45, %.critedge2
  ret ptr %4
}